; ModuleID = '11/562.c'
source_filename = "11/562.c"
target datalayout = "e-m:e-p270:32:32-p271:32:32-p272:64:64-i64:64-f80:128-n8:16:32:64-S128"
target triple = "x86_64-pc-linux-gnu"

@.str = private unnamed_addr constant [7 x i8] c"%d%d%d\00", align 1
@__const.main.s = private unnamed_addr constant [12 x i32] [i32 31, i32 28, i32 31, i32 30, i32 31, i32 30, i32 31, i32 31, i32 30, i32 31, i32 30, i32 31], align 16
@.str.1 = private unnamed_addr constant [3 x i8] c"%d\00", align 1

; Function Attrs: noinline nounwind uwtable
define dso_local i32 @main() #0 {
  %1 = alloca i32, align 4
  %2 = alloca i32, align 4
  %3 = alloca i32, align 4
  %4 = alloca i32, align 4
  %5 = alloca [12 x i32], align 16
  %6 = alloca i32, align 4
  %7 = alloca i32, align 4
  %8 = alloca i32, align 4
  store i32 0, i32* %1, align 4
  %9 = call i32 (i8*, ...) @__isoc99_scanf(i8* getelementptr inbounds ([7 x i8], [7 x i8]* @.str, i64 0, i64 0), i32* %2, i32* %3, i32* %4)
  %10 = bitcast [12 x i32]* %5 to i8*
  call void @llvm.memcpy.p0i8.p0i8.i64(i8* align 16 %10, i8* align 16 bitcast ([12 x i32]* @__const.main.s to i8*), i64 48, i1 false)
  store i32 0, i32* %6, align 4
  store i32 0, i32* %7, align 4
  store i32 0, i32* %6, align 4
  br label %11

11:                                               ; preds = %23, %0
  %12 = load i32, i32* %6, align 4
  %13 = load i32, i32* %3, align 4
  %14 = sub nsw i32 %13, 1
  %15 = icmp slt i32 %12, %14
  br i1 %15, label %16, label %26

16:                                               ; preds = %11
  %17 = load i32, i32* %6, align 4
  %18 = sext i32 %17 to i64
  %19 = getelementptr inbounds [12 x i32], [12 x i32]* %5, i64 0, i64 %18
  %20 = load i32, i32* %19, align 4
  %21 = load i32, i32* %7, align 4
  %22 = add nsw i32 %21, %20
  store i32 %22, i32* %7, align 4
  br label %23

23:                                               ; preds = %16
  %24 = load i32, i32* %6, align 4
  %25 = add nsw i32 %24, 1
  store i32 %25, i32* %6, align 4
  br label %11

26:                                               ; preds = %11
  %27 = load i32, i32* %2, align 4
  %28 = srem i32 %27, 4
  %29 = icmp eq i32 %28, 0
  br i1 %29, label %30, label %34

30:                                               ; preds = %26
  %31 = load i32, i32* %2, align 4
  %32 = srem i32 %31, 100
  %33 = icmp ne i32 %32, 0
  br i1 %33, label %38, label %34

34:                                               ; preds = %30, %26
  %35 = load i32, i32* %2, align 4
  %36 = srem i32 %35, 400
  %37 = icmp eq i32 %36, 0
  br i1 %37, label %38, label %49

38:                                               ; preds = %34, %30
  %39 = load i32, i32* %3, align 4
  %40 = icmp ne i32 %39, 1
  br i1 %40, label %41, label %49

41:                                               ; preds = %38
  %42 = load i32, i32* %3, align 4
  %43 = icmp ne i32 %42, 2
  br i1 %43, label %44, label %49

44:                                               ; preds = %41
  %45 = load i32, i32* %7, align 4
  %46 = load i32, i32* %4, align 4
  %47 = add nsw i32 %45, %46
  %48 = add nsw i32 %47, 1
  store i32 %48, i32* %8, align 4
  br label %53

49:                                               ; preds = %41, %38, %34
  %50 = load i32, i32* %7, align 4
  %51 = load i32, i32* %4, align 4
  %52 = add nsw i32 %50, %51
  store i32 %52, i32* %8, align 4
  br label %53

53:                                               ; preds = %49, %44
  %54 = load i32, i32* %8, align 4
  %55 = call i32 (i8*, ...) @printf(i8* getelementptr inbounds ([3 x i8], [3 x i8]* @.str.1, i64 0, i64 0), i32 %54)
  ret i32 0
}

declare dso_local i32 @__isoc99_scanf(i8*, ...) #1

; Function Attrs: argmemonly nounwind willreturn
declare void @llvm.memcpy.p0i8.p0i8.i64(i8* noalias nocapture writeonly, i8* noalias nocapture readonly, i64, i1 immarg) #2

declare dso_local i32 @printf(i8*, ...) #1


!llvm.module.flags = !{!0}
!llvm.ident = !{!1}

!0 = !{i32 1, !"wchar_size", i32 4}
!1 = !{!"clang version 10.0.0-4ubuntu1 "}
